target datalayout = "e-m:e-p270:32:32-p271:32:32-p272:64:64-i64:64-i128:128-f80:128-n8:16:32:64-S128"
target triple = "x86_64-pc-linux-gnu"

%"class.std::__cxx11::basic_string" = type { %"struct.std::__cxx11::basic_string<char>::_Alloc_hider", i64, %union.anon }
%"struct.std::__cxx11::basic_string<char>::_Alloc_hider" = type { ptr }
%union.anon = type { i64, [8 x i8] }
%"class.std::optional" = type { %"struct.std::_Optional_base" }
%"struct.std::_Optional_base" = type { %"struct.std::_Optional_payload" }
%"struct.std::_Optional_payload" = type { %"struct.std::_Optional_payload.base", [7 x i8] }
%"struct.std::_Optional_payload.base" = type { %"struct.std::_Optional_payload_base.base" }
%"struct.std::_Optional_payload_base.base" = type <{ %"union.std::_Optional_payload_base<std::__cxx11::basic_string<char>>::_Storage", i8 }>
%"union.std::_Optional_payload_base<std::__cxx11::basic_string<char>>::_Storage" = type { %"class.std::__cxx11::basic_string" }
%"struct.Luau::Type" = type { %"class.Luau::Variant.150", i8, [7 x i8], %"class.std::optional", ptr }
%"class.Luau::Variant.150" = type { i32, [4 x i8], [336 x i8] }
%"struct.Luau::Unifiable::Bound.172" = type { ptr }

; Function Attrs: mustprogress uwtable
define linkonce_odr dso_local noundef ptr @_ZN4Luau5visitIRNS_22TypeRehydrationVisitorEJNS_9Unifiable5BoundIPKNS_4TypeEEENS3_5ErrorIS7_EENS_8FreeTypeENS_11GenericTypeENS_13PrimitiveTypeENS_13SingletonTypeENS_11BlockedTypeENS_20PendingExpansionTypeENS_12FunctionTypeENS_9TableTypeENS_13MetatableTypeENS_9ClassTypeENS_7AnyTypeENS_9UnionTypeENS_16IntersectionTypeENS_8LazyTypeENS_11UnknownTypeENS_9NeverTypeENS_12NegationTypeENS_12NoRefineTypeENS_24TypeFunctionInstanceTypeEEEEDaOT_RKNS_7VariantIJDpT0_EEE(ptr noundef nonnull align 8 dereferenceable(80) %0, ptr noundef nonnull align 8 dereferenceable(344) %1) #2 comdat {
  %3 = alloca ptr, align 8
  %4 = alloca ptr, align 8
  %5 = alloca ptr, align 8
  store ptr %0, ptr %3, align 8, !tbaa !8
  store ptr %1, ptr %4, align 8, !tbaa !108
  call void @llvm.lifetime.start.p0(i64 8, ptr %5) #19
  %6 = load ptr, ptr %4, align 8, !tbaa !108
  %7 = getelementptr inbounds nuw %"class.Luau::Variant.150", ptr %6, i32 0, i32 0
  %8 = load i32, ptr %7, align 8, !tbaa !110
  %9 = sext i32 %8 to i64
  %10 = getelementptr inbounds [21 x ptr], ptr @_ZZN4Luau5visitIRNS_22TypeRehydrationVisitorEJNS_9Unifiable5BoundIPKNS_4TypeEEENS3_5ErrorIS7_EENS_8FreeTypeENS_11GenericTypeENS_13PrimitiveTypeENS_13SingletonTypeENS_11BlockedTypeENS_20PendingExpansionTypeENS_12FunctionTypeENS_9TableTypeENS_13MetatableTypeENS_9ClassTypeENS_7AnyTypeENS_9UnionTypeENS_16IntersectionTypeENS_8LazyTypeENS_11UnknownTypeENS_9NeverTypeENS_12NegationTypeENS_12NoRefineTypeENS_24TypeFunctionInstanceTypeEEEEDaOT_RKNS_7VariantIJDpT0_EEEE10tableVisit_0, i64 0, i64 %9
  %11 = load ptr, ptr %10, align 8, !tbaa !41
  %12 = load ptr, ptr %3, align 8, !tbaa !8
  %13 = load ptr, ptr %4, align 8, !tbaa !108
  %14 = getelementptr inbounds nuw %"class.Luau::Variant.150", ptr %13, i32 0, i32 2
  call void %11(ptr noundef nonnull align 8 dereferenceable(80) %12, ptr noundef nonnull align 8 dereferenceable(8) %5, ptr noundef %14)
  %15 = load ptr, ptr %5, align 8, !tbaa !112
  call void @llvm.lifetime.end.p0(i64 8, ptr %5) #19
  ret ptr %15
}

; Function Attrs: mustprogress uwtable
define linkonce_odr dso_local noundef ptr @_ZN4Luau22TypeRehydrationVisitorclERKNS_9Unifiable5BoundIPKNS_4TypeEEE(ptr noundef nonnull align 8 dereferenceable(80) %0, ptr noundef nonnull align 8 dereferenceable(8) %1) #2 comdat align 2 {
  %3 = alloca ptr, align 8
  %4 = alloca ptr, align 8
  store ptr %0, ptr %3, align 8, !tbaa !8
  store ptr %1, ptr %4, align 8, !tbaa !282
  %5 = load ptr, ptr %3, align 8
  %6 = load ptr, ptr %4, align 8, !tbaa !282
  %7 = getelementptr inbounds nuw %"struct.Luau::Unifiable::Bound.172", ptr %6, i32 0, i32 0
  %8 = load ptr, ptr %7, align 8, !tbaa !284
  %9 = getelementptr inbounds nuw %"struct.Luau::Type", ptr %8, i32 0, i32 0
  %10 = call noundef ptr @_ZN4Luau5visitIRNS_22TypeRehydrationVisitorEJNS_9Unifiable5BoundIPKNS_4TypeEEENS3_5ErrorIS7_EENS_8FreeTypeENS_11GenericTypeENS_13PrimitiveTypeENS_13SingletonTypeENS_11BlockedTypeENS_20PendingExpansionTypeENS_12FunctionTypeENS_9TableTypeENS_13MetatableTypeENS_9ClassTypeENS_7AnyTypeENS_9UnionTypeENS_16IntersectionTypeENS_8LazyTypeENS_11UnknownTypeENS_9NeverTypeENS_12NegationTypeENS_12NoRefineTypeENS_24TypeFunctionInstanceTypeEEEEDaOT_RKNS_7VariantIJDpT0_EEE(ptr noundef nonnull align 8 dereferenceable(80) %5, ptr noundef nonnull align 8 dereferenceable(344) %9)
  ret ptr %10
}

; Function Attrs: mustprogress uwtable
define internal void @_ZN4LuauL8fnVisitRINS_22TypeRehydrationVisitorEPNS_7AstTypeEKNS_9Unifiable5BoundIPKNS_4TypeEEEEEvRT_RT0_PNSt11conditionalIXsr3stdE10is_const_vIT1_EEKvvE4typeE(ptr noundef nonnull align 8 dereferenceable(80) %0, ptr noundef nonnull align 8 dereferenceable(8) %1, ptr noundef %2) #2 {
  %4 = alloca ptr, align 8
  %5 = alloca ptr, align 8
  %6 = alloca ptr, align 8
  store ptr %0, ptr %4, align 8, !tbaa !8
  store ptr %1, ptr %5, align 8, !tbaa !266
  store ptr %2, ptr %6, align 8, !tbaa !41
  %7 = load ptr, ptr %4, align 8, !tbaa !8
  %8 = load ptr, ptr %6, align 8, !tbaa !41
  %9 = call noundef ptr @_ZN4Luau22TypeRehydrationVisitorclERKNS_9Unifiable5BoundIPKNS_4TypeEEE(ptr noundef nonnull align 8 dereferenceable(80) %7, ptr noundef nonnull align 8 dereferenceable(8) %8)
  %10 = load ptr, ptr %5, align 8, !tbaa !266
  store ptr %9, ptr %10, align 8, !tbaa !112
  ret void
}