; Function Attrs: mustprogress uwtable
define internal void @_ZN4LuauL8fnVisitRINS_22TypeRehydrationVisitorEPNS_7AstTypeEKNS_9Unifiable5BoundIPKNS_4TypeEEEEEvRT_RT0_PNSt11conditionalIXsr3stdE10is_const_vIT1_EEKvvE4typeE(ptr noundef nonnull align 8 dereferenceable(80) %0, ptr noundef nonnull writeonly align 8 captures(none) dereferenceable(8) initializes((0, 8)) %1, ptr noundef readonly captures(none) %2) #2 {
  %4 = alloca ptr, align 8
  %5 = load ptr, ptr %2, align 8, !tbaa !154
  call void @llvm.lifetime.start.p0(i64 8, ptr nonnull %4) #21
  %6 = load i32, ptr %5, align 8, !tbaa !104
  %7 = sext i32 %6 to i64
  %8 = getelementptr inbounds [21 x ptr], ptr @_ZZN4Luau5visitIRNS_22TypeRehydrationVisitorEJNS_9Unifiable5BoundIPKNS_4TypeEEENS3_5ErrorIS7_EENS_8FreeTypeENS_11GenericTypeENS_13PrimitiveTypeENS_13SingletonTypeENS_11BlockedTypeENS_20PendingExpansionTypeENS_12FunctionTypeENS_9TableTypeENS_13MetatableTypeENS_9ClassTypeENS_7AnyTypeENS_9UnionTypeENS_16IntersectionTypeENS_8LazyTypeENS_11UnknownTypeENS_9NeverTypeENS_12NegationTypeENS_12NoRefineTypeENS_24TypeFunctionInstanceTypeEEEEDaOT_RKNS_7VariantIJDpT0_EEEE10tableVisit_0, i64 0, i64 %7
  %9 = load ptr, ptr %8, align 8, !tbaa !32
  %10 = getelementptr inbounds nuw i8, ptr %5, i64 8
  call void %9(ptr noundef nonnull align 8 dereferenceable(80) %0, ptr noundef nonnull align 8 dereferenceable(8) %4, ptr noundef nonnull %10)
  %11 = load ptr, ptr %4, align 8, !tbaa !106
  call void @llvm.lifetime.end.p0(i64 8, ptr nonnull %4) #21
  store ptr %11, ptr %1, align 8, !tbaa !106
  ret void
}